; ModuleID = 'source-C-CXX/59/1471.c'
source_filename = "source-C-CXX/59/1471.c"
target datalayout = "e-m:e-p270:32:32-p271:32:32-p272:64:64-i64:64-f80:128-n8:16:32:64-S128"
target triple = "x86_64-pc-linux-gnu"

@.str = private unnamed_addr constant [3 x i8] c"%d\00", align 1
@.str.1 = private unnamed_addr constant [6 x i8] c"empty\00", align 1
@.str.3 = private unnamed_addr constant [7 x i8] c"%d %d\0A\00", align 1
@str.4 = private unnamed_addr constant [4 x i8] c"3 5\00", align 1

; Function Attrs: nofree nounwind sspstrong uwtable
define dso_local i32 @main() local_unnamed_addr #0 {
  %1 = alloca i32, align 4
  %2 = bitcast i32* %1 to i8*
  call void @llvm.lifetime.start.p0i8(i64 4, i8* nonnull %2) #4
  %3 = call i32 (i8*, ...) @__isoc99_scanf(i8* getelementptr inbounds ([3 x i8], [3 x i8]* @.str, i64 0, i64 0), i32* nonnull %1)
  %4 = load i32, i32* %1, align 4, !tbaa !5
  %5 = icmp slt i32 %4, 5
  br i1 %5, label %6, label %8

6:                                                ; preds = %0
  %7 = call i32 (i8*, ...) @printf(i8* nonnull dereferenceable(1) getelementptr inbounds ([6 x i8], [6 x i8]* @.str.1, i64 0, i64 0))
  br label %44

8:                                                ; preds = %0
  %9 = icmp slt i32 %4, 7
  br i1 %9, label %10, label %12

10:                                               ; preds = %8
  %11 = call i32 @puts(i8* nonnull dereferenceable(1) getelementptr inbounds ([4 x i8], [4 x i8]* @str.4, i64 0, i64 0))
  br label %44

12:                                               ; preds = %8
  %13 = call i32 @puts(i8* nonnull dereferenceable(1) getelementptr inbounds ([4 x i8], [4 x i8]* @str.4, i64 0, i64 0))
  %14 = load i32, i32* %1, align 4, !tbaa !5
  %15 = icmp slt i32 %14, 5
  br i1 %15, label %44, label %16

16:                                               ; preds = %12, %40
  %17 = phi i32 [ %41, %40 ], [ %14, %12 ]
  %18 = phi i32 [ %42, %40 ], [ 5, %12 ]
  br label %22

19:                                               ; preds = %22
  %20 = mul nsw i32 %26, %26
  %21 = icmp ugt i32 %20, %18
  br i1 %21, label %27, label %22, !llvm.loop !9

22:                                               ; preds = %16, %19
  %23 = phi i32 [ %26, %19 ], [ 2, %16 ]
  %24 = urem i32 %18, %23
  %25 = icmp eq i32 %24, 0
  %26 = add nuw nsw i32 %23, 1
  br i1 %25, label %40, label %19

27:                                               ; preds = %19
  %28 = add nuw nsw i32 %18, 2
  br label %32

29:                                               ; preds = %32
  %30 = mul nsw i32 %36, %36
  %31 = icmp ugt i32 %30, %28
  br i1 %31, label %37, label %32, !llvm.loop !11

32:                                               ; preds = %27, %29
  %33 = phi i32 [ %36, %29 ], [ 2, %27 ]
  %34 = urem i32 %28, %33
  %35 = icmp eq i32 %34, 0
  %36 = add nuw nsw i32 %33, 1
  br i1 %35, label %40, label %29

37:                                               ; preds = %29
  %38 = call i32 (i8*, ...) @printf(i8* nonnull dereferenceable(1) getelementptr inbounds ([7 x i8], [7 x i8]* @.str.3, i64 0, i64 0), i32 %18, i32 %28)
  %39 = load i32, i32* %1, align 4, !tbaa !5
  br label %40

40:                                               ; preds = %22, %32, %37
  %41 = phi i32 [ %39, %37 ], [ %17, %32 ], [ %17, %22 ]
  %42 = add nuw nsw i32 %18, 1
  %43 = icmp slt i32 %18, %41
  br i1 %43, label %16, label %44, !llvm.loop !12

44:                                               ; preds = %40, %12, %10, %6
  call void @llvm.lifetime.end.p0i8(i64 4, i8* nonnull %2) #4
  ret i32 0
}

; Function Attrs: argmemonly mustprogress nofree nosync nounwind willreturn
declare void @llvm.lifetime.start.p0i8(i64 immarg, i8* nocapture) #1

; Function Attrs: nofree nounwind
declare noundef i32 @__isoc99_scanf(i8* nocapture noundef readonly, ...) local_unnamed_addr #2

; Function Attrs: nofree nounwind
declare noundef i32 @printf(i8* nocapture noundef readonly, ...) local_unnamed_addr #2

; Function Attrs: argmemonly mustprogress nofree nosync nounwind willreturn
declare void @llvm.lifetime.end.p0i8(i64 immarg, i8* nocapture) #1

; Function Attrs: nofree nounwind
declare noundef i32 @puts(i8* nocapture noundef readonly) local_unnamed_addr #3


!llvm.module.flags = !{!0, !1, !2, !3}
!llvm.ident = !{!4}

!0 = !{i32 1, !"wchar_size", i32 4}
!1 = !{i32 7, !"PIC Level", i32 2}
!2 = !{i32 7, !"PIE Level", i32 2}
!3 = !{i32 7, !"uwtable", i32 1}
!4 = !{!"clang version 13.0.0"}
!5 = !{!6, !6, i64 0}
!6 = !{!"int", !7, i64 0}
!7 = !{!"omnipotent char", !8, i64 0}
!8 = !{!"Simple C/C++ TBAA"}
!9 = distinct !{!9, !10}
!10 = !{!"llvm.loop.mustprogress"}
!11 = distinct !{!11, !10}
!12 = distinct !{!12, !10}
